target datalayout = "e-m:e-p270:32:32-p271:32:32-p272:64:64-i64:64-i128:128-f80:128-n8:16:32:64-S128"
target triple = "x86_64-pc-linux-gnu"

%"struct.pkpy::StrName" = type { i16 }
%"struct.pkpy::Type" = type { i16 }
%"struct.pkpy::PyObject" = type { ptr, i8, i8, %"struct.pkpy::Type", ptr }
%class.anon.78 = type { i8 }
%"struct.pkpy::SmallNameDict" = type { i8, i16, [8 x %"struct.pkpy::StrName"], [8 x ptr] }
%"struct.pkpy::NameDictImpl" = type { %union.anon }
%union.anon = type { %"struct.pkpy::SmallNameDict" }
%"class.pkpy::VM" = type <{ ptr, ptr, %"struct.pkpy::ManagedHeap", %"struct.pkpy::ValueStack", %"struct.pkpy::CallStack", %"class.std::vector.0", %"struct.pkpy::NameDictImpl", %"class.std::map", %struct.anon, ptr, ptr, ptr, ptr, ptr, ptr, ptr, ptr, %"class.std::map.13", %"class.std::set", %"struct.pkpy::ImportContext", ptr, ptr, ptr, %"class.std::map.37", %"class.std::map.45", %"class.std::shared_ptr", ptr, ptr, ptr, ptr, i8, [7 x i8] }>
%"struct.pkpy::ManagedHeap" = type <{ %"class.std::vector", %"class.std::vector", ptr, ptr, ptr, i32, i32, i32, [4 x i8] }>
%"class.std::vector" = type { %"struct.std::_Vector_base" }
%"struct.std::_Vector_base" = type { %"struct.std::_Vector_base<pkpy::PyObject *, std::allocator<pkpy::PyObject *>>::_Vector_impl" }
%"struct.std::_Vector_base<pkpy::PyObject *, std::allocator<pkpy::PyObject *>>::_Vector_impl" = type { %"struct.std::_Vector_base<pkpy::PyObject *, std::allocator<pkpy::PyObject *>>::_Vector_impl_data" }
%"struct.std::_Vector_base<pkpy::PyObject *, std::allocator<pkpy::PyObject *>>::_Vector_impl_data" = type { ptr, ptr, ptr }
%"struct.pkpy::ValueStack" = type { [33024 x ptr], ptr, ptr }
%"struct.pkpy::CallStack" = type <{ ptr, i32, [4 x i8] }>
%"class.std::vector.0" = type { %"struct.std::_Vector_base.1" }
%"struct.std::_Vector_base.1" = type { %"struct.std::_Vector_base<pkpy::PyTypeInfo, std::allocator<pkpy::PyTypeInfo>>::_Vector_impl" }
%"struct.std::_Vector_base<pkpy::PyTypeInfo, std::allocator<pkpy::PyTypeInfo>>::_Vector_impl" = type { %"struct.std::_Vector_base<pkpy::PyTypeInfo, std::allocator<pkpy::PyTypeInfo>>::_Vector_impl_data" }
%"struct.std::_Vector_base<pkpy::PyTypeInfo, std::allocator<pkpy::PyTypeInfo>>::_Vector_impl_data" = type { ptr, ptr, ptr }
%"class.std::map" = type { %"class.std::_Rb_tree" }
%"class.std::_Rb_tree" = type { %"struct.std::_Rb_tree<pkpy::StrName, std::pair<const pkpy::StrName, pkpy::Str>, std::_Select1st<std::pair<const pkpy::StrName, pkpy::Str>>, std::less<pkpy::StrName>>::_Rb_tree_impl" }
%"struct.std::_Rb_tree<pkpy::StrName, std::pair<const pkpy::StrName, pkpy::Str>, std::_Select1st<std::pair<const pkpy::StrName, pkpy::Str>>, std::less<pkpy::StrName>>::_Rb_tree_impl" = type { %"struct.std::_Rb_tree_key_compare", %"struct.std::_Rb_tree_header" }
%"struct.std::_Rb_tree_key_compare" = type { %"struct.std::less" }
%"struct.std::less" = type { i8 }
%"struct.std::_Rb_tree_header" = type { %"struct.std::_Rb_tree_node_base", i64 }
%"struct.std::_Rb_tree_node_base" = type { i32, ptr, ptr, ptr }
%struct.anon = type { ptr, %"class.pkpy::stack_no_copy" }
%"class.pkpy::stack_no_copy" = type { %"class.pkpy::stack" }
%"class.pkpy::stack" = type { %"class.std::vector.8" }
%"class.std::vector.8" = type { %"struct.std::_Vector_base.9" }
%"struct.std::_Vector_base.9" = type { %"struct.std::_Vector_base<pkpy::ArgsView, std::allocator<pkpy::ArgsView>>::_Vector_impl" }
%"struct.std::_Vector_base<pkpy::ArgsView, std::allocator<pkpy::ArgsView>>::_Vector_impl" = type { %"struct.std::_Vector_base<pkpy::ArgsView, std::allocator<pkpy::ArgsView>>::_Vector_impl_data" }
%"struct.std::_Vector_base<pkpy::ArgsView, std::allocator<pkpy::ArgsView>>::_Vector_impl_data" = type { ptr, ptr, ptr }
%"class.std::map.13" = type { %"class.std::_Rb_tree.14" }
%"class.std::_Rb_tree.14" = type { %"struct.std::_Rb_tree<const std::type_index, std::pair<const std::type_index, pkpy::Type>, std::_Select1st<std::pair<const std::type_index, pkpy::Type>>, std::less<const std::type_index>>::_Rb_tree_impl" }
%"struct.std::_Rb_tree<const std::type_index, std::pair<const std::type_index, pkpy::Type>, std::_Select1st<std::pair<const std::type_index, pkpy::Type>>, std::less<const std::type_index>>::_Rb_tree_impl" = type { %"struct.std::_Rb_tree_key_compare.18", %"struct.std::_Rb_tree_header" }
%"struct.std::_Rb_tree_key_compare.18" = type { %"struct.std::less.19" }
%"struct.std::less.19" = type { i8 }
%"class.std::set" = type { %"class.std::_Rb_tree.21" }
%"class.std::_Rb_tree.21" = type { %"struct.std::_Rb_tree<pkpy::PyObject *, pkpy::PyObject *, std::_Identity<pkpy::PyObject *>, std::less<pkpy::PyObject *>>::_Rb_tree_impl" }
%"struct.std::_Rb_tree<pkpy::PyObject *, pkpy::PyObject *, std::_Identity<pkpy::PyObject *>, std::less<pkpy::PyObject *>>::_Rb_tree_impl" = type { %"struct.std::_Rb_tree_key_compare.25", %"struct.std::_Rb_tree_header" }
%"struct.std::_Rb_tree_key_compare.25" = type { %"struct.std::less.26" }
%"struct.std::less.26" = type { i8 }
%"struct.pkpy::ImportContext" = type { %"class.std::vector.28", %"class.std::vector.33" }
%"class.std::vector.28" = type { %"struct.std::_Vector_base.29" }
%"struct.std::_Vector_base.29" = type { %"struct.std::_Vector_base<pkpy::Str, std::allocator<pkpy::Str>>::_Vector_impl" }
%"struct.std::_Vector_base<pkpy::Str, std::allocator<pkpy::Str>>::_Vector_impl" = type { %"struct.std::_Vector_base<pkpy::Str, std::allocator<pkpy::Str>>::_Vector_impl_data" }
%"struct.std::_Vector_base<pkpy::Str, std::allocator<pkpy::Str>>::_Vector_impl_data" = type { ptr, ptr, ptr }
%"class.std::vector.33" = type { %"struct.std::_Bvector_base" }
%"struct.std::_Bvector_base" = type { %"struct.std::_Bvector_base<std::allocator<bool>>::_Bvector_impl" }
%"struct.std::_Bvector_base<std::allocator<bool>>::_Bvector_impl" = type { %"struct.std::_Bvector_base<std::allocator<bool>>::_Bvector_impl_data" }
%"struct.std::_Bvector_base<std::allocator<bool>>::_Bvector_impl_data" = type { %"struct.std::_Bit_iterator", %"struct.std::_Bit_iterator", ptr }
%"struct.std::_Bit_iterator" = type { %"struct.std::_Bit_iterator_base.base", [4 x i8] }
%"struct.std::_Bit_iterator_base.base" = type <{ ptr, i32 }>
%"class.std::map.37" = type { %"class.std::_Rb_tree.38" }
%"class.std::_Rb_tree.38" = type { %"struct.std::_Rb_tree<std::basic_string_view<char>, std::pair<const std::basic_string_view<char>, std::shared_ptr<pkpy::CodeObject>>, std::_Select1st<std::pair<const std::basic_string_view<char>, std::shared_ptr<pkpy::CodeObject>>>, std::less<std::basic_string_view<char>>>::_Rb_tree_impl" }
%"struct.std::_Rb_tree<std::basic_string_view<char>, std::pair<const std::basic_string_view<char>, std::shared_ptr<pkpy::CodeObject>>, std::_Select1st<std::pair<const std::basic_string_view<char>, std::shared_ptr<pkpy::CodeObject>>>, std::less<std::basic_string_view<char>>>::_Rb_tree_impl" = type { %"struct.std::_Rb_tree_key_compare.42", %"struct.std::_Rb_tree_header" }
%"struct.std::_Rb_tree_key_compare.42" = type { %"struct.std::less.43" }
%"struct.std::less.43" = type { i8 }
%"class.std::map.45" = type { %"class.std::_Rb_tree.46" }
%"class.std::_Rb_tree.46" = type { %"struct.std::_Rb_tree<std::basic_string_view<char>, std::pair<const std::basic_string_view<char>, pkpy::PyObject *>, std::_Select1st<std::pair<const std::basic_string_view<char>, pkpy::PyObject *>>, std::less<std::basic_string_view<char>>>::_Rb_tree_impl" }
%"struct.std::_Rb_tree<std::basic_string_view<char>, std::pair<const std::basic_string_view<char>, pkpy::PyObject *>, std::_Select1st<std::pair<const std::basic_string_view<char>, pkpy::PyObject *>>, std::less<std::basic_string_view<char>>>::_Rb_tree_impl" = type { %"struct.std::_Rb_tree_key_compare.42", %"struct.std::_Rb_tree_header" }
%"class.std::shared_ptr" = type { %"class.std::__shared_ptr" }
%"class.std::__shared_ptr" = type { ptr, %"class.std::__shared_count" }
%"class.std::__shared_count" = type { ptr }
%"struct.pkpy::Py_.390" = type { %"struct.pkpy::PyObject", %"struct.pkpy::Struct" }
%"struct.pkpy::Struct" = type <{ [24 x i8], ptr, i32, [4 x i8] }>

@_ZN4pkpy2VM6tp_intE = linkonce_odr constant %"struct.pkpy::Type" { i16 2 }, comdat, align 2
@__const._ZN4pkpy18_py_cast__internalIRNS_6StructELb0EEET_PNS_2VMEPNS_8PyObjectE.const_type = private unnamed_addr constant %"struct.pkpy::Type" { i16 -1 }, align 2

; Function Attrs: mustprogress nounwind uwtable
define linkonce_odr noundef zeroext i1 @_ZN4pkpy12is_small_intEPNS_8PyObjectE(ptr noundef %0) #6 comdat {
  %2 = alloca ptr, align 8
  store ptr %0, ptr %2, align 8
  %3 = load ptr, ptr %2, align 8
  %4 = ptrtoint ptr %3 to i64
  %5 = and i64 %4, 3
  %6 = icmp eq i64 %5, 2
  ret i1 %6
}

; Function Attrs: mustprogress nounwind uwtable
define linkonce_odr noundef zeroext i1 @_ZNK4pkpy4TypeeqES0_(ptr noundef nonnull align 2 dereferenceable(2) %0, i16 %1) #6 comdat align 2 {
  %3 = alloca %"struct.pkpy::Type", align 2
  %4 = alloca ptr, align 8
  %5 = getelementptr inbounds %"struct.pkpy::Type", ptr %3, i32 0, i32 0
  store i16 %1, ptr %5, align 2
  store ptr %0, ptr %4, align 8
  %6 = load ptr, ptr %4, align 8
  %7 = getelementptr inbounds %"struct.pkpy::Type", ptr %6, i32 0, i32 0
  %8 = load i16, ptr %7, align 2
  %9 = sext i16 %8 to i32
  %10 = getelementptr inbounds %"struct.pkpy::Type", ptr %3, i32 0, i32 0
  %11 = load i16, ptr %10, align 2
  %12 = sext i16 %11 to i32
  %13 = icmp eq i32 %9, %12
  ret i1 %13
}

; Function Attrs: mustprogress uwtable
define linkonce_odr i16 @_ZN4pkpy2VM8_tp_userINS_6StructEEENS_4TypeEv(ptr noundef nonnull align 8 dereferenceable(264913) %0) #4 comdat align 2 {
  %2 = alloca %"struct.pkpy::Type", align 2
  %3 = alloca ptr, align 8
  store ptr %0, ptr %3, align 8
  %4 = load ptr, ptr %3, align 8
  %5 = call i16 @_ZN4pkpy2VM28_find_type_in_cxx_typeid_mapINS_6StructEEENS_4TypeEv(ptr noundef nonnull align 8 dereferenceable(264913) %4)
  %6 = getelementptr inbounds %"struct.pkpy::Type", ptr %2, i32 0, i32 0
  store i16 %5, ptr %6, align 2
  %7 = getelementptr inbounds %"struct.pkpy::Type", ptr %2, i32 0, i32 0
  %8 = load i16, ptr %7, align 2
  ret i16 %8
}

; Function Attrs: mustprogress nounwind uwtable
define linkonce_odr i16 @_ZN4pkpy2VM3_tpEPNS_8PyObjectE(ptr noundef nonnull align 8 dereferenceable(264913) %0, ptr noundef %1) #6 comdat align 2 {
  %3 = alloca %"struct.pkpy::Type", align 2
  %4 = alloca ptr, align 8
  %5 = alloca ptr, align 8
  store ptr %0, ptr %4, align 8
  store ptr %1, ptr %5, align 8
  %6 = load ptr, ptr %5, align 8
  %7 = call noundef zeroext i1 @_ZN4pkpy12is_small_intEPNS_8PyObjectE(ptr noundef %6) #3
  br i1 %7, label %8, label %9

8:                                                ; preds = %2
  br label %12

9:                                                ; preds = %2
  %10 = load ptr, ptr %5, align 8
  %11 = getelementptr inbounds %"struct.pkpy::PyObject", ptr %10, i32 0, i32 3
  br label %12

12:                                               ; preds = %9, %8
  %13 = phi ptr [ @_ZN4pkpy2VM6tp_intE, %8 ], [ %11, %9 ]
  call void @llvm.memcpy.p0.p0.i64(ptr align 2 %3, ptr align 2 %13, i64 2, i1 false)
  %14 = getelementptr inbounds %"struct.pkpy::Type", ptr %3, i32 0, i32 0
  %15 = load i16, ptr %14, align 2
  ret i16 %15
}

; Function Attrs: mustprogress uwtable
define linkonce_odr noundef nonnull align 8 dereferenceable(36) ptr @_ZN4pkpy18_py_cast__internalIRNS_6StructELb0EEET_PNS_2VMEPNS_8PyObjectE(ptr noundef %0, ptr noundef %1) #4 comdat {
  %3 = alloca ptr, align 8
  %4 = alloca ptr, align 8
  %5 = alloca %"struct.pkpy::Type", align 2
  %6 = alloca %"struct.pkpy::Type", align 2
  store ptr %0, ptr %3, align 8
  store ptr %1, ptr %4, align 8
  call void @llvm.memcpy.p0.p0.i64(ptr align 2 %5, ptr align 2 @__const._ZN4pkpy18_py_cast__internalIRNS_6StructELb0EEET_PNS_2VMEPNS_8PyObjectE.const_type, i64 2, i1 false)
  %7 = load ptr, ptr %3, align 8
  %8 = call i16 @_ZN4pkpy2VM28_find_type_in_cxx_typeid_mapINS_6StructEEENS_4TypeEv(ptr noundef nonnull align 8 dereferenceable(264913) %7)
  %9 = getelementptr inbounds %"struct.pkpy::Type", ptr %6, i32 0, i32 0
  store i16 %8, ptr %9, align 2
  %10 = load ptr, ptr %4, align 8
  %11 = getelementptr inbounds %"struct.pkpy::Py_.390", ptr %10, i32 0, i32 1
  ret ptr %11
}

; Function Attrs: mustprogress nounwind uwtable
define linkonce_odr noundef ptr @_ZN4pkpy6py_varIRbEEPNS_8PyObjectEPNS_2VMEOT_(ptr noundef %0, ptr noundef nonnull align 1 dereferenceable(1) %1) #6 comdat {
  %3 = alloca ptr, align 8
  %4 = alloca ptr, align 8
  store ptr %0, ptr %3, align 8
  store ptr %1, ptr %4, align 8
  %5 = load ptr, ptr %4, align 8
  %6 = load i8, ptr %5, align 1
  %7 = trunc i8 %6 to i1
  br i1 %7, label %8, label %12

8:                                                ; preds = %2
  %9 = load ptr, ptr %3, align 8
  %10 = getelementptr inbounds %"class.pkpy::VM", ptr %9, i32 0, i32 10
  %11 = load ptr, ptr %10, align 8
  br label %16

12:                                               ; preds = %2
  %13 = load ptr, ptr %3, align 8
  %14 = getelementptr inbounds %"class.pkpy::VM", ptr %13, i32 0, i32 11
  %15 = load ptr, ptr %14, align 8
  br label %16

16:                                               ; preds = %12, %8
  %17 = phi ptr [ %11, %8 ], [ %15, %12 ]
  ret ptr %17
}

; Function Attrs: mustprogress uwtable
define linkonce_odr noundef zeroext i1 @_ZN4pkpy2VM12is_user_typeINS_6StructEEEbPNS_8PyObjectE(ptr noundef nonnull align 8 dereferenceable(264913) %0, ptr noundef %1) #4 comdat align 2 {
  %3 = alloca ptr, align 8
  %4 = alloca ptr, align 8
  %5 = alloca %"struct.pkpy::Type", align 2
  %6 = alloca %"struct.pkpy::Type", align 2
  store ptr %0, ptr %3, align 8
  store ptr %1, ptr %4, align 8
  %7 = load ptr, ptr %3, align 8
  %8 = load ptr, ptr %4, align 8
  %9 = call i16 @_ZN4pkpy2VM3_tpEPNS_8PyObjectE(ptr noundef nonnull align 8 dereferenceable(264913) %7, ptr noundef %8)
  %10 = getelementptr inbounds %"struct.pkpy::Type", ptr %5, i32 0, i32 0
  store i16 %9, ptr %10, align 2
  %11 = call i16 @_ZN4pkpy2VM8_tp_userINS_6StructEEENS_4TypeEv(ptr noundef nonnull align 8 dereferenceable(264913) %7)
  %12 = getelementptr inbounds %"struct.pkpy::Type", ptr %6, i32 0, i32 0
  store i16 %11, ptr %12, align 2
  %13 = getelementptr inbounds %"struct.pkpy::Type", ptr %6, i32 0, i32 0
  %14 = load i16, ptr %13, align 2
  %15 = call noundef zeroext i1 @_ZNK4pkpy4TypeeqES0_(ptr noundef nonnull align 2 dereferenceable(2) %5, i16 %14)
  ret i1 %15
}

; Function Attrs: mustprogress uwtable
define linkonce_odr noundef nonnull align 8 dereferenceable(36) ptr @_ZN4pkpy8_py_castIRNS_6StructEEET_PNS_2VMEPNS_8PyObjectE(ptr noundef %0, ptr noundef %1) #4 comdat {
  %3 = alloca ptr, align 8
  %4 = alloca ptr, align 8
  store ptr %0, ptr %3, align 8
  store ptr %1, ptr %4, align 8
  %5 = load ptr, ptr %3, align 8
  %6 = load ptr, ptr %4, align 8
  %7 = call noundef nonnull align 8 dereferenceable(36) ptr @_ZN4pkpy18_py_cast__internalIRNS_6StructELb0EEET_PNS_2VMEPNS_8PyObjectE(ptr noundef %5, ptr noundef %6)
  ret ptr %7
}

; Function Attrs: mustprogress uwtable
define internal noundef ptr @"_ZZN4pkpy6Struct9_registerEPNS_2VMEPNS_8PyObjectES4_ENK3$_7clES2_S4_S4_"(ptr noundef nonnull align 1 dereferenceable(1) %0, ptr noundef %1, ptr noundef %2, ptr noundef %3) #4 align 2 {
  %5 = alloca ptr, align 8
  %6 = alloca ptr, align 8
  %7 = alloca ptr, align 8
  %8 = alloca ptr, align 8
  %9 = alloca ptr, align 8
  %10 = alloca ptr, align 8
  %11 = alloca ptr, align 8
  %12 = alloca i8, align 1
  store ptr %0, ptr %6, align 8
  store ptr %1, ptr %7, align 8
  store ptr %2, ptr %8, align 8
  store ptr %3, ptr %9, align 8
  %13 = load ptr, ptr %7, align 8
  %14 = load ptr, ptr %8, align 8
  %15 = call noundef nonnull align 8 dereferenceable(36) ptr @_ZN4pkpy8_py_castIRNS_6StructEEET_PNS_2VMEPNS_8PyObjectE(ptr noundef %13, ptr noundef %14)
  store ptr %15, ptr %10, align 8
  %16 = load ptr, ptr %7, align 8
  %17 = load ptr, ptr %9, align 8
  %18 = call noundef zeroext i1 @_ZN4pkpy2VM12is_user_typeINS_6StructEEEbPNS_8PyObjectE(ptr noundef nonnull align 8 dereferenceable(264913) %16, ptr noundef %17)
  br i1 %18, label %23, label %19

19:                                               ; preds = %4
  %20 = load ptr, ptr %7, align 8
  %21 = getelementptr inbounds %"class.pkpy::VM", ptr %20, i32 0, i32 12
  %22 = load ptr, ptr %21, align 8
  store ptr %22, ptr %5, align 8
  br label %52

23:                                               ; preds = %4
  %24 = load ptr, ptr %7, align 8
  %25 = load ptr, ptr %9, align 8
  %26 = call noundef nonnull align 8 dereferenceable(36) ptr @_ZN4pkpy8_py_castIRNS_6StructEEET_PNS_2VMEPNS_8PyObjectE(ptr noundef %24, ptr noundef %25)
  store ptr %26, ptr %11, align 8
  %27 = load ptr, ptr %10, align 8
  %28 = getelementptr inbounds %"struct.pkpy::Struct", ptr %27, i32 0, i32 2
  %29 = load i32, ptr %28, align 8
  %30 = load ptr, ptr %11, align 8
  %31 = getelementptr inbounds %"struct.pkpy::Struct", ptr %30, i32 0, i32 2
  %32 = load i32, ptr %31, align 8
  %33 = icmp eq i32 %29, %32
  br i1 %33, label %34, label %47

34:                                               ; preds = %23
  %35 = load ptr, ptr %10, align 8
  %36 = getelementptr inbounds %"struct.pkpy::Struct", ptr %35, i32 0, i32 1
  %37 = load ptr, ptr %36, align 8
  %38 = load ptr, ptr %11, align 8
  %39 = getelementptr inbounds %"struct.pkpy::Struct", ptr %38, i32 0, i32 1
  %40 = load ptr, ptr %39, align 8
  %41 = load ptr, ptr %10, align 8
  %42 = getelementptr inbounds %"struct.pkpy::Struct", ptr %41, i32 0, i32 2
  %43 = load i32, ptr %42, align 8
  %44 = sext i32 %43 to i64
  %45 = call i32 @memcmp(ptr noundef %37, ptr noundef %40, i64 noundef %44) #18
  %46 = icmp eq i32 %45, 0
  br label %47

47:                                               ; preds = %34, %23
  %48 = phi i1 [ false, %23 ], [ %46, %34 ]
  %49 = zext i1 %48 to i8
  store i8 %49, ptr %12, align 1
  %50 = load ptr, ptr %7, align 8
  %51 = call noundef ptr @_ZN4pkpy6py_varIRbEEPNS_8PyObjectEPNS_2VMEOT_(ptr noundef %50, ptr noundef nonnull align 1 dereferenceable(1) %12)
  store ptr %51, ptr %5, align 8
  br label %52

52:                                               ; preds = %47, %19
  %53 = load ptr, ptr %5, align 8
  ret ptr %53
}

; Function Attrs: mustprogress uwtable
define internal noundef ptr @"_ZZN4pkpy6Struct9_registerEPNS_2VMEPNS_8PyObjectES4_EN3$_78__invokeES2_S4_S4_"(ptr noundef %0, ptr noundef %1, ptr noundef %2) #4 align 2 {
  %4 = alloca ptr, align 8
  %5 = alloca ptr, align 8
  %6 = alloca ptr, align 8
  %7 = alloca %class.anon.78, align 1
  store ptr %0, ptr %4, align 8
  store ptr %1, ptr %5, align 8
  store ptr %2, ptr %6, align 8
  %8 = load ptr, ptr %4, align 8
  %9 = load ptr, ptr %5, align 8
  %10 = load ptr, ptr %6, align 8
  %11 = call noundef ptr @"_ZZN4pkpy6Struct9_registerEPNS_2VMEPNS_8PyObjectES4_ENK3$_7clES2_S4_S4_"(ptr noundef nonnull align 1 dereferenceable(1) %7, ptr noundef %8, ptr noundef %9, ptr noundef %10)
  ret ptr %11
}