; Function Attrs: mustprogress uwtable
define internal noundef ptr @"_ZZN4pkpy6Struct9_registerEPNS_2VMEPNS_8PyObjectES4_EN3$_78__invokeES2_S4_S4_"(ptr noundef nonnull %0, ptr nocapture noundef readonly %1, ptr noundef %2) #3 align 2 {
  %4 = tail call i16 @_ZN4pkpy2VM28_find_type_in_cxx_typeid_mapINS_6StructEEENS_4TypeEv(ptr noundef nonnull align 8 dereferenceable(264913) %0)
  %5 = ptrtoint ptr %2 to i64
  %6 = and i64 %5, 3
  %7 = icmp eq i64 %6, 2
  %8 = getelementptr inbounds i8, ptr %2, i64 10
  %9 = select i1 %7, ptr @_ZN4pkpy2VM6tp_intE, ptr %8
  %.sroa.0.0.copyload.i.i.i = load i16, ptr %9, align 2
  %10 = tail call i16 @_ZN4pkpy2VM28_find_type_in_cxx_typeid_mapINS_6StructEEENS_4TypeEv(ptr noundef nonnull align 8 dereferenceable(264913) %0)
  %11 = icmp eq i16 %.sroa.0.0.copyload.i.i.i, %10
  br i1 %11, label %12, label %"_ZZN4pkpy6Struct9_registerEPNS_2VMEPNS_8PyObjectES4_ENK3$_7clES2_S4_S4_.exit"

12:                                               ; preds = %3
  %13 = tail call i16 @_ZN4pkpy2VM28_find_type_in_cxx_typeid_mapINS_6StructEEENS_4TypeEv(ptr noundef nonnull align 8 dereferenceable(264913) %0)
  %14 = getelementptr inbounds i8, ptr %1, i64 56
  %15 = load i32, ptr %14, align 8
  %16 = getelementptr inbounds i8, ptr %2, i64 56
  %17 = load i32, ptr %16, align 8
  %18 = icmp eq i32 %15, %17
  br i1 %18, label %19, label %"_ZZN4pkpy6Struct9_registerEPNS_2VMEPNS_8PyObjectES4_ENK3$_7clES2_S4_S4_.exit"

19:                                               ; preds = %12
  %20 = getelementptr inbounds i8, ptr %1, i64 48
  %21 = load ptr, ptr %20, align 8
  %22 = getelementptr inbounds i8, ptr %2, i64 48
  %23 = load ptr, ptr %22, align 8
  %24 = sext i32 %15 to i64
  %bcmp.i = tail call i32 @bcmp(ptr %21, ptr %23, i64 %24)
  %25 = icmp eq i32 %bcmp.i, 0
  %26 = select i1 %25, i64 264528, i64 264536
  br label %"_ZZN4pkpy6Struct9_registerEPNS_2VMEPNS_8PyObjectES4_ENK3$_7clES2_S4_S4_.exit"

"_ZZN4pkpy6Struct9_registerEPNS_2VMEPNS_8PyObjectES4_ENK3$_7clES2_S4_S4_.exit": ; preds = %3, %12, %19
  %.in.v.i.sink.i = phi i64 [ 264544, %3 ], [ 264536, %12 ], [ %26, %19 ]
  %.in.i.i = getelementptr inbounds i8, ptr %0, i64 %.in.v.i.sink.i
  %.0.i = load ptr, ptr %.in.i.i, align 8
  ret ptr %.0.i
}